target datalayout = "e-m:e-p270:32:32-p271:32:32-p272:64:64-i64:64-i128:128-f80:128-n8:16:32:64-S128"
target triple = "x86_64-pc-linux-gnu"

%struct._zend_array = type { %struct._zend_refcounted_h, %union.anon.4, i32, %union.anon.6, i32, i32, i32, i32, i64, ptr }
%struct._zend_refcounted_h = type { i32, %union.anon.3 }
%union.anon.3 = type { i32 }
%union.anon.4 = type { i32 }
%union.anon.6 = type { ptr }
%struct._zval_struct = type { %union._zend_value, %union.anon, %union.anon.2 }
%union._zend_value = type { i64 }
%union.anon = type { i32 }
%union.anon.2 = type { i32 }
%struct._zend_attribute = type { ptr, ptr, i32, i32, i32, i32, [1 x %struct.zend_attribute_arg] }
%struct.zend_attribute_arg = type { ptr, %struct._zval_struct }
%struct._zend_string = type { %struct._zend_refcounted_h, i64, i64, [1 x i8] }

; Function Attrs: nounwind uwtable
define zeroext i1 @zend_is_attribute_repeated(ptr noundef %0, ptr noundef %1) #0 {
  %3 = alloca ptr, align 8
  %4 = alloca ptr, align 8
  %5 = alloca ptr, align 8
  %6 = alloca ptr, align 8
  %7 = alloca ptr, align 8
  %8 = alloca i1, align 1
  %9 = alloca ptr, align 8
  %10 = alloca ptr, align 8
  %11 = alloca ptr, align 8
  %12 = alloca ptr, align 8
  %13 = alloca i64, align 8
  %14 = alloca ptr, align 8
  %15 = alloca ptr, align 8
  store ptr %0, ptr %9, align 8
  store ptr %1, ptr %10, align 8
  br label %16

16:                                               ; preds = %2
  %17 = load ptr, ptr %9, align 8
  store ptr %17, ptr %12, align 8
  store i64 0, ptr %13, align 8
  %18 = load ptr, ptr %12, align 8
  %19 = getelementptr inbounds %struct._zend_array, ptr %18, i32 0, i32 3
  %20 = load ptr, ptr %19, align 8
  %21 = getelementptr inbounds %struct._zval_struct, ptr %20, i64 0
  store ptr %21, ptr %14, align 8
  %22 = load ptr, ptr %12, align 8
  %23 = getelementptr inbounds %struct._zend_array, ptr %22, i32 0, i32 3
  %24 = load ptr, ptr %23, align 8
  %25 = load ptr, ptr %12, align 8
  %26 = getelementptr inbounds %struct._zend_array, ptr %25, i32 0, i32 4
  %27 = load i32, ptr %26, align 8
  %28 = zext i32 %27 to i64
  %29 = getelementptr inbounds %struct._zval_struct, ptr %24, i64 %28
  store ptr %29, ptr %15, align 8
  %30 = load ptr, ptr %12, align 8
  %31 = getelementptr inbounds %struct._zend_array, ptr %30, i32 0, i32 1
  %32 = load i32, ptr %31, align 8
  %33 = and i32 %32, 4
  %34 = icmp ne i32 %33, 0
  call void @llvm.assume(i1 %34)
  br label %35

35:                                               ; preds = %98, %16
  %36 = load ptr, ptr %14, align 8
  %37 = load ptr, ptr %15, align 8
  %38 = icmp ne ptr %36, %37
  br i1 %38, label %39, label %103

39:                                               ; preds = %35
  %40 = load ptr, ptr %14, align 8
  store ptr %40, ptr %7, align 8
  %41 = load ptr, ptr %7, align 8
  %42 = getelementptr inbounds %struct._zval_struct, ptr %41, i32 0, i32 1
  %43 = load i8, ptr %42, align 8
  %44 = zext i8 %43 to i32
  %45 = icmp eq i32 %44, 0
  %46 = xor i1 %45, true
  %47 = xor i1 %46, true
  %48 = zext i1 %47 to i32
  %49 = sext i32 %48 to i64
  %50 = icmp ne i64 %49, 0
  br i1 %50, label %51, label %52

51:                                               ; preds = %39
  br label %98

52:                                               ; preds = %39
  %53 = load ptr, ptr %14, align 8
  %54 = getelementptr inbounds %struct._zval_struct, ptr %53, i32 0, i32 0
  %55 = load ptr, ptr %54, align 8
  store ptr %55, ptr %11, align 8
  %56 = load ptr, ptr %11, align 8
  %57 = load ptr, ptr %10, align 8
  %58 = icmp ne ptr %56, %57
  br i1 %58, label %59, label %97

59:                                               ; preds = %52
  %60 = load ptr, ptr %11, align 8
  %61 = getelementptr inbounds %struct._zend_attribute, ptr %60, i32 0, i32 4
  %62 = load i32, ptr %61, align 8
  %63 = load ptr, ptr %10, align 8
  %64 = getelementptr inbounds %struct._zend_attribute, ptr %63, i32 0, i32 4
  %65 = load i32, ptr %64, align 8
  %66 = icmp eq i32 %62, %65
  br i1 %66, label %67, label %97

67:                                               ; preds = %59
  %68 = load ptr, ptr %11, align 8
  %69 = getelementptr inbounds %struct._zend_attribute, ptr %68, i32 0, i32 1
  %70 = load ptr, ptr %69, align 8
  %71 = load ptr, ptr %10, align 8
  %72 = getelementptr inbounds %struct._zend_attribute, ptr %71, i32 0, i32 1
  %73 = load ptr, ptr %72, align 8
  store ptr %70, ptr %5, align 8
  store ptr %73, ptr %6, align 8
  %74 = load ptr, ptr %5, align 8
  %75 = load ptr, ptr %6, align 8
  %76 = icmp eq ptr %74, %75
  br i1 %76, label %93, label %77

77:                                               ; preds = %67
  %78 = load ptr, ptr %5, align 8
  %79 = load ptr, ptr %6, align 8
  store ptr %78, ptr %3, align 8
  store ptr %79, ptr %4, align 8
  %80 = load ptr, ptr %3, align 8
  %81 = getelementptr inbounds %struct._zend_string, ptr %80, i32 0, i32 2
  %82 = load i64, ptr %81, align 8
  %83 = load ptr, ptr %4, align 8
  %84 = getelementptr inbounds %struct._zend_string, ptr %83, i32 0, i32 2
  %85 = load i64, ptr %84, align 8
  %86 = icmp eq i64 %82, %85
  br i1 %86, label %87, label %91

87:                                               ; preds = %77
  %88 = load ptr, ptr %3, align 8
  %89 = load ptr, ptr %4, align 8
  %90 = call zeroext i1 @zend_string_equal_val(ptr noundef %88, ptr noundef %89) #12
  br label %91

91:                                               ; preds = %87, %77
  %92 = phi i1 [ false, %77 ], [ %90, %87 ]
  br label %93

93:                                               ; preds = %91, %67
  %94 = phi i1 [ true, %67 ], [ %92, %91 ]
  br i1 %94, label %95, label %96

95:                                               ; preds = %93
  store i1 true, ptr %8, align 1
  br label %105

96:                                               ; preds = %93
  br label %97

97:                                               ; preds = %96, %59, %52
  br label %98

98:                                               ; preds = %97, %51
  %99 = load ptr, ptr %14, align 8
  %100 = getelementptr inbounds %struct._zval_struct, ptr %99, i32 1
  store ptr %100, ptr %14, align 8
  %101 = load i64, ptr %13, align 8
  %102 = add i64 %101, 1
  store i64 %102, ptr %13, align 8
  br label %35

103:                                              ; preds = %35
  br label %104

104:                                              ; preds = %103
  store i1 false, ptr %8, align 1
  br label %105

105:                                              ; preds = %104, %95
  %106 = load i1, ptr %8, align 1
  ret i1 %106
}