; Function Attrs: nounwind uwtable
define noundef zeroext i1 @zend_is_attribute_repeated(ptr nocapture noundef readonly %0, ptr noundef readonly %1) local_unnamed_addr #0 {
  %3 = getelementptr inbounds i8, ptr %0, i64 16
  %4 = load ptr, ptr %3, align 8
  %5 = getelementptr inbounds i8, ptr %0, i64 24
  %6 = load i32, ptr %5, align 8
  %7 = zext i32 %6 to i64
  %8 = getelementptr inbounds %struct._zval_struct, ptr %4, i64 %7
  %9 = getelementptr inbounds i8, ptr %0, i64 8
  %10 = load i32, ptr %9, align 8
  %11 = and i32 %10, 4
  %12 = icmp ne i32 %11, 0
  tail call void @llvm.assume(i1 %12)
  %.not35.not = icmp eq i32 %6, 0
  br i1 %.not35.not, label %.critedge, label %.lr.ph

.lr.ph:                                           ; preds = %2
  %13 = getelementptr inbounds i8, ptr %1, i64 24
  %14 = getelementptr inbounds i8, ptr %1, i64 8
  br label %15

15:                                               ; preds = %.lr.ph, %.critedge2
  %.02836 = phi ptr [ %4, %.lr.ph ], [ %39, %.critedge2 ]
  %16 = getelementptr inbounds i8, ptr %.02836, i64 8
  %17 = load i8, ptr %16, align 8
  %18 = icmp eq i8 %17, 0
  br i1 %18, label %.critedge2, label %19

19:                                               ; preds = %15
  %20 = load ptr, ptr %.02836, align 8
  %.not34 = icmp eq ptr %20, %1
  br i1 %.not34, label %.critedge2, label %21

21:                                               ; preds = %19
  %22 = getelementptr inbounds i8, ptr %20, i64 24
  %23 = load i32, ptr %22, align 8
  %24 = load i32, ptr %13, align 8
  %25 = icmp eq i32 %23, %24
  br i1 %25, label %26, label %.critedge2

26:                                               ; preds = %21
  %27 = getelementptr inbounds i8, ptr %20, i64 8
  %28 = load ptr, ptr %27, align 8
  %29 = load ptr, ptr %14, align 8
  %30 = icmp eq ptr %28, %29
  br i1 %30, label %.critedge, label %31

31:                                               ; preds = %26
  %32 = getelementptr inbounds i8, ptr %28, i64 16
  %33 = load i64, ptr %32, align 8
  %34 = getelementptr inbounds i8, ptr %29, i64 16
  %35 = load i64, ptr %34, align 8
  %36 = icmp eq i64 %33, %35
  br i1 %36, label %37, label %.critedge2

37:                                               ; preds = %31
  %38 = tail call zeroext i1 @zend_string_equal_val(ptr noundef nonnull %28, ptr noundef nonnull %29) #16
  br i1 %38, label %.critedge, label %.critedge2

.critedge2:                                       ; preds = %19, %21, %31, %37, %15
  %39 = getelementptr inbounds i8, ptr %.02836, i64 16
  %.not.not = icmp eq ptr %39, %8
  br i1 %.not.not, label %.critedge, label %15

.critedge:                                        ; preds = %26, %37, %.critedge2, %2
  %.not.lcssa = phi i1 [ false, %2 ], [ false, %.critedge2 ], [ true, %37 ], [ true, %26 ]
  ret i1 %.not.lcssa
}